target datalayout = "e-m:e-p270:32:32-p271:32:32-p272:64:64-i64:64-i128:128-f80:128-n8:16:32:64-S128"
target triple = "x86_64-pc-linux-gnu"

@H5G_init_g = external global i8, align 1
@H5_libterm_g = external global i8, align 1

; Function Attrs: nounwind uwtable
define internal i32 @H5G__loc_exists_cb(ptr noundef %0, ptr noundef %1, ptr noundef %2, ptr noundef %3, ptr noundef %4, ptr noundef %5) #0 {
  %7 = alloca ptr, align 8
  %8 = alloca ptr, align 8
  %9 = alloca ptr, align 8
  %10 = alloca ptr, align 8
  %11 = alloca ptr, align 8
  %12 = alloca ptr, align 8
  %13 = alloca ptr, align 8
  store ptr %0, ptr %7, align 8, !tbaa !9
  store ptr %1, ptr %8, align 8, !tbaa !32
  store ptr %2, ptr %9, align 8, !tbaa !37
  store ptr %3, ptr %10, align 8, !tbaa !9
  store ptr %4, ptr %11, align 8, !tbaa !3
  store ptr %5, ptr %12, align 8, !tbaa !39
  call void @llvm.lifetime.start.p0(i64 8, ptr %13) #7
  %14 = load ptr, ptr %11, align 8, !tbaa !3
  store ptr %14, ptr %13, align 8, !tbaa !54
  %15 = load i8, ptr @H5G_init_g, align 1, !tbaa !11, !range !13, !noundef !14
  %16 = trunc i8 %15 to i1
  br i1 %16, label %21, label %17

17:                                               ; preds = %6
  %18 = load i8, ptr @H5_libterm_g, align 1, !tbaa !11, !range !13, !noundef !14
  %19 = trunc i8 %18 to i1
  %20 = xor i1 %19, true
  br label %21

21:                                               ; preds = %17, %6
  %22 = phi i1 [ true, %6 ], [ %20, %17 ]
  %23 = xor i1 %22, true
  %24 = xor i1 %23, true
  %25 = zext i1 %24 to i32
  %26 = sext i32 %25 to i64
  %27 = call i64 @llvm.expect.i64(i64 %26, i64 1)
  %28 = icmp ne i64 %27, 0
  br i1 %28, label %29, label %38

29:                                               ; preds = %21
  %30 = load ptr, ptr %10, align 8, !tbaa !9
  %31 = icmp eq ptr %30, null
  br i1 %31, label %32, label %34

32:                                               ; preds = %29
  %33 = load ptr, ptr %13, align 8, !tbaa !54
  store i8 0, ptr %33, align 1, !tbaa !11
  br label %36

34:                                               ; preds = %29
  %35 = load ptr, ptr %13, align 8, !tbaa !54
  store i8 1, ptr %35, align 1, !tbaa !11
  br label %36

36:                                               ; preds = %34, %32
  %37 = load ptr, ptr %12, align 8, !tbaa !39
  store i32 0, ptr %37, align 4, !tbaa !7
  br label %38

38:                                               ; preds = %36, %21
  call void @llvm.lifetime.end.p0(i64 8, ptr %13) #7
  ret i32 0
}