; Function Attrs: mustprogress nofree norecurse nosync nounwind willreturn memory(read, argmem: write, inaccessiblemem: none) uwtable
define internal noundef i32 @H5G__loc_exists_cb(ptr readnone captures(none) %0, ptr readnone captures(none) %1, ptr readnone captures(none) %2, ptr noundef readnone captures(address_is_null) %3, ptr noundef writeonly captures(none) %4, ptr noundef writeonly captures(none) %5) #3 {
  %7 = load i8, ptr @H5G_init_g, align 1, !tbaa !3, !range !7, !noundef !8
  %8 = trunc nuw i8 %7 to i1
  %9 = load i8, ptr @H5_libterm_g, align 1, !range !7
  %10 = trunc nuw i8 %9 to i1
  %11 = xor i1 %10, true
  %12 = select i1 %8, i1 true, i1 %11
  br i1 %12, label %13, label %15, !prof !9

13:                                               ; preds = %6
  %14 = icmp ne ptr %3, null
  %. = zext i1 %14 to i8
  store i8 %., ptr %4, align 1, !tbaa !3
  store i32 0, ptr %5, align 4, !tbaa !22
  br label %15

15:                                               ; preds = %13, %6
  ret i32 0
}